target datalayout = "e-m:e-p270:32:32-p271:32:32-p272:64:64-i64:64-i128:128-f80:128-n8:16:32:64-S128"
target triple = "x86_64-pc-linux-gnu"

%struct.AVChannelLayout = type { i32, i32, %union.anon.2, ptr }
%union.anon.2 = type { i64 }
%struct.AACDecContext = type { ptr, ptr, %struct.AACDecDSP, %struct.AACDecProc, ptr, i32, %struct.DynamicRangeControl, [4 x [64 x ptr]], [4 x [64 x ptr]], i32, i32, [8 x i8], %union.anon, %union.anon.0, ptr, ptr, ptr, ptr, ptr, ptr, ptr, ptr, ptr, ptr, ptr, ptr, ptr, ptr, ptr, ptr, ptr, ptr, %union.anon.1, i32, [64 x ptr], i32, i32, i32, [2 x %struct.OutputConfiguration], i32, i32, i32, i32, i32, i32, [8 x i8] }
%struct.AACDecDSP = type { ptr, ptr, ptr, ptr, ptr, ptr, ptr, ptr, ptr, ptr, ptr, ptr, ptr, ptr, ptr }
%struct.AACDecProc = type { ptr, ptr, ptr, ptr, ptr, ptr }
%struct.DynamicRangeControl = type { i32, [17 x i32], [17 x i32], [64 x i32], i32, i32, [17 x i32], i32 }
%union.anon = type { [1024 x i32] }
%union.anon.0 = type { [128 x i32] }
%union.anon.1 = type { ptr }
%struct.OutputConfiguration = type { %struct.MPEG4AudioConfig, [256 x [3 x i8]], i32, %struct.AVChannelLayout, i32, %struct.AACUSACConfig }
%struct.MPEG4AudioConfig = type { i32, i32, i32, i32, i32, i32, i32, i32, i32, i32, i32, i32 }
%struct.AACUSACConfig = type { i8, i16, i16, [64 x %struct.AACUsacElemConfig], i32, %struct.anon.6 }
%struct.AACUsacElemConfig = type { i32, i8, i8, %struct.anon, %struct.anon.4, %struct.anon.5 }
%struct.anon = type { i32, i8, %struct.anon.3 }
%struct.anon.3 = type { i8, i8, i8, i8, i8, i8, i8, i8 }
%struct.anon.4 = type { i8, i8, i8, i8, i8, i8, i8, i8, i8 }
%struct.anon.5 = type { i32, i8, i32, i32, ptr }
%struct.anon.6 = type { i8, i8, [64 x %struct.AACUSACLoudnessInfo], i8, i8, [64 x %struct.AACUSACLoudnessInfo] }
%struct.AACUSACLoudnessInfo = type <{ i16, %struct.anon.7, %struct.anon.8, i8, [16 x %struct.anon.9], i8 }>
%struct.anon.7 = type { i16 }
%struct.anon.8 = type { i32 }
%struct.anon.9 = type { i8, i8, i8 }
%struct.AVCodecContext = type { ptr, i32, i32, ptr, i32, i32, ptr, ptr, ptr, i64, i32, i32, ptr, i32, %struct.AVRational, %struct.AVRational, %struct.AVRational, i32, i32, i32, i32, i32, %struct.AVRational, i32, i32, i32, i32, i32, i32, i32, i32, i32, i32, i32, ptr, ptr, i32, float, float, float, float, float, float, float, float, float, i32, i32, i32, i32, i32, i32, i32, i32, i32, i32, i32, i32, ptr, ptr, ptr, i32, i32, i32, i32, i32, i32, i32, i32, i32, i32, %struct.AVChannelLayout, i32, i32, i32, i32, i32, i32, i32, i32, ptr, i32, i32, i32, float, float, i32, i32, i32, i32, i32, ptr, i64, i64, float, float, i32, i32, ptr, ptr, i32, i32, i32, i32, i32, ptr, ptr, ptr, ptr, i32, i32, [8 x i64], i32, i32, i32, i32, i32, i32, i32, ptr, ptr, i32, i32, i32, i32, i32, i32, i32, i32, i32, i32, ptr, ptr, i32, i32, ptr, ptr, ptr, ptr, i32, i32, i64, i32, i32, i64, ptr, i64, ptr, i32, ptr, i32 }
%struct.AVRational = type { i32, i32 }

@ff_mpeg4audio_channels = external constant [15 x i8], align 1
@.str.9 = private unnamed_addr constant [19 x i8] c"Too many channels\0A\00", align 1

; Function Attrs: inlinehint nounwind uwtable
define internal i32 @ff_aac_sample_rate_idx(i32 noundef %0) #6 {
  %2 = alloca i32, align 4
  %3 = alloca i32, align 4
  store i32 %0, ptr %3, align 4, !tbaa !11
  %4 = load i32, ptr %3, align 4, !tbaa !11
  %5 = icmp sle i32 92017, %4
  br i1 %5, label %6, label %7

6:                                                ; preds = %1
  store i32 0, ptr %2, align 4
  br label %48

7:                                                ; preds = %1
  %8 = load i32, ptr %3, align 4, !tbaa !11
  %9 = icmp sle i32 75132, %8
  br i1 %9, label %10, label %11

10:                                               ; preds = %7
  store i32 1, ptr %2, align 4
  br label %48

11:                                               ; preds = %7
  %12 = load i32, ptr %3, align 4, !tbaa !11
  %13 = icmp sle i32 55426, %12
  br i1 %13, label %14, label %15

14:                                               ; preds = %11
  store i32 2, ptr %2, align 4
  br label %48

15:                                               ; preds = %11
  %16 = load i32, ptr %3, align 4, !tbaa !11
  %17 = icmp sle i32 46009, %16
  br i1 %17, label %18, label %19

18:                                               ; preds = %15
  store i32 3, ptr %2, align 4
  br label %48

19:                                               ; preds = %15
  %20 = load i32, ptr %3, align 4, !tbaa !11
  %21 = icmp sle i32 37566, %20
  br i1 %21, label %22, label %23

22:                                               ; preds = %19
  store i32 4, ptr %2, align 4
  br label %48

23:                                               ; preds = %19
  %24 = load i32, ptr %3, align 4, !tbaa !11
  %25 = icmp sle i32 27713, %24
  br i1 %25, label %26, label %27

26:                                               ; preds = %23
  store i32 5, ptr %2, align 4
  br label %48

27:                                               ; preds = %23
  %28 = load i32, ptr %3, align 4, !tbaa !11
  %29 = icmp sle i32 23004, %28
  br i1 %29, label %30, label %31

30:                                               ; preds = %27
  store i32 6, ptr %2, align 4
  br label %48

31:                                               ; preds = %27
  %32 = load i32, ptr %3, align 4, !tbaa !11
  %33 = icmp sle i32 18783, %32
  br i1 %33, label %34, label %35

34:                                               ; preds = %31
  store i32 7, ptr %2, align 4
  br label %48

35:                                               ; preds = %31
  %36 = load i32, ptr %3, align 4, !tbaa !11
  %37 = icmp sle i32 13856, %36
  br i1 %37, label %38, label %39

38:                                               ; preds = %35
  store i32 8, ptr %2, align 4
  br label %48

39:                                               ; preds = %35
  %40 = load i32, ptr %3, align 4, !tbaa !11
  %41 = icmp sle i32 11502, %40
  br i1 %41, label %42, label %43

42:                                               ; preds = %39
  store i32 9, ptr %2, align 4
  br label %48

43:                                               ; preds = %39
  %44 = load i32, ptr %3, align 4, !tbaa !11
  %45 = icmp sle i32 9391, %44
  br i1 %45, label %46, label %47

46:                                               ; preds = %43
  store i32 10, ptr %2, align 4
  br label %48

47:                                               ; preds = %43
  store i32 11, ptr %2, align 4
  br label %48

48:                                               ; preds = %47, %46, %42, %38, %34, %30, %26, %22, %18, %14, %10, %6
  %49 = load i32, ptr %2, align 4
  ret i32 %49
}

; Function Attrs: cold nounwind optsize uwtable
define i32 @ff_aac_decode_init(ptr noundef %0) #5 {
  %2 = alloca i32, align 4
  %3 = alloca ptr, align 8
  %4 = alloca ptr, align 8
  %5 = alloca i32, align 4
  %6 = alloca i32, align 4
  %7 = alloca i32, align 4
  %8 = alloca i32, align 4
  %9 = alloca [256 x [3 x i8]], align 16
  %10 = alloca i32, align 4
  %11 = alloca i32, align 4
  store ptr %0, ptr %3, align 8, !tbaa !22
  call void @llvm.lifetime.start.p0(i64 8, ptr %4) #12
  %12 = load ptr, ptr %3, align 8, !tbaa !22
  %13 = getelementptr inbounds nuw %struct.AVCodecContext, ptr %12, i32 0, i32 6
  %14 = load ptr, ptr %13, align 8, !tbaa !59
  store ptr %14, ptr %4, align 8, !tbaa !4
  call void @llvm.lifetime.start.p0(i64 4, ptr %5) #12
  %15 = load ptr, ptr %3, align 8, !tbaa !22
  %16 = getelementptr inbounds nuw %struct.AVCodecContext, ptr %15, i32 0, i32 69
  %17 = load i32, ptr %16, align 8, !tbaa !93
  %18 = icmp sgt i32 %17, 96000
  br i1 %18, label %19, label %20

19:                                               ; preds = %1
  store i32 -1094995529, ptr %2, align 4
  store i32 1, ptr %6, align 4
  br label %173

20:                                               ; preds = %1
  call void @ff_aacdec_common_init_once()
  %21 = load ptr, ptr %3, align 8, !tbaa !22
  %22 = load ptr, ptr %4, align 8, !tbaa !4
  %23 = getelementptr inbounds nuw %struct.AACDecContext, ptr %22, i32 0, i32 1
  store ptr %21, ptr %23, align 8, !tbaa !13
  %24 = load ptr, ptr %3, align 8, !tbaa !22
  %25 = getelementptr inbounds nuw %struct.AVCodecContext, ptr %24, i32 0, i32 69
  %26 = load i32, ptr %25, align 8, !tbaa !93
  %27 = load ptr, ptr %4, align 8, !tbaa !4
  %28 = getelementptr inbounds nuw %struct.AACDecContext, ptr %27, i32 0, i32 38
  %29 = getelementptr inbounds [2 x %struct.OutputConfiguration], ptr %28, i64 0, i64 1
  %30 = getelementptr inbounds nuw %struct.OutputConfiguration, ptr %29, i32 0, i32 0
  %31 = getelementptr inbounds nuw %struct.MPEG4AudioConfig, ptr %30, i32 0, i32 2
  store i32 %26, ptr %31, align 8, !tbaa !94
  %32 = load ptr, ptr %3, align 8, !tbaa !22
  %33 = getelementptr inbounds nuw %struct.AVCodecContext, ptr %32, i32 0, i32 13
  %34 = load i32, ptr %33, align 8, !tbaa !95
  %35 = icmp sgt i32 %34, 0
  br i1 %35, label %36, label %57

36:                                               ; preds = %20
  %37 = load ptr, ptr %4, align 8, !tbaa !4
  %38 = load ptr, ptr %4, align 8, !tbaa !4
  %39 = getelementptr inbounds nuw %struct.AACDecContext, ptr %38, i32 0, i32 1
  %40 = load ptr, ptr %39, align 8, !tbaa !13
  %41 = load ptr, ptr %4, align 8, !tbaa !4
  %42 = getelementptr inbounds nuw %struct.AACDecContext, ptr %41, i32 0, i32 38
  %43 = getelementptr inbounds [2 x %struct.OutputConfiguration], ptr %42, i64 0, i64 1
  %44 = load ptr, ptr %3, align 8, !tbaa !22
  %45 = getelementptr inbounds nuw %struct.AVCodecContext, ptr %44, i32 0, i32 12
  %46 = load ptr, ptr %45, align 8, !tbaa !96
  %47 = load ptr, ptr %3, align 8, !tbaa !22
  %48 = getelementptr inbounds nuw %struct.AVCodecContext, ptr %47, i32 0, i32 13
  %49 = load i32, ptr %48, align 8, !tbaa !95
  %50 = sext i32 %49 to i64
  %51 = mul nsw i64 %50, 8
  %52 = call i32 @decode_audio_specific_config(ptr noundef %37, ptr noundef %40, ptr noundef %43, ptr noundef %46, i64 noundef %51, i32 noundef 1)
  store i32 %52, ptr %5, align 4, !tbaa !11
  %53 = icmp slt i32 %52, 0
  br i1 %53, label %54, label %56

54:                                               ; preds = %36
  %55 = load i32, ptr %5, align 4, !tbaa !11
  store i32 %55, ptr %2, align 4
  store i32 1, ptr %6, align 4
  br label %173

56:                                               ; preds = %36
  br label %160

57:                                               ; preds = %20
  call void @llvm.lifetime.start.p0(i64 4, ptr %7) #12
  call void @llvm.lifetime.start.p0(i64 4, ptr %8) #12
  call void @llvm.lifetime.start.p0(i64 768, ptr %9) #12
  call void @llvm.lifetime.start.p0(i64 4, ptr %10) #12
  %58 = load ptr, ptr %3, align 8, !tbaa !22
  %59 = getelementptr inbounds nuw %struct.AVCodecContext, ptr %58, i32 0, i32 69
  %60 = load i32, ptr %59, align 8, !tbaa !93
  %61 = call i32 @ff_aac_sample_rate_idx(i32 noundef %60)
  store i32 %61, ptr %7, align 4, !tbaa !11
  %62 = load i32, ptr %7, align 4, !tbaa !11
  %63 = load ptr, ptr %4, align 8, !tbaa !4
  %64 = getelementptr inbounds nuw %struct.AACDecContext, ptr %63, i32 0, i32 38
  %65 = getelementptr inbounds [2 x %struct.OutputConfiguration], ptr %64, i64 0, i64 1
  %66 = getelementptr inbounds nuw %struct.OutputConfiguration, ptr %65, i32 0, i32 0
  %67 = getelementptr inbounds nuw %struct.MPEG4AudioConfig, ptr %66, i32 0, i32 1
  store i32 %62, ptr %67, align 4, !tbaa !97
  %68 = load ptr, ptr %3, align 8, !tbaa !22
  %69 = getelementptr inbounds nuw %struct.AVCodecContext, ptr %68, i32 0, i32 71
  %70 = getelementptr inbounds nuw %struct.AVChannelLayout, ptr %69, i32 0, i32 1
  %71 = load i32, ptr %70, align 4, !tbaa !76
  %72 = load ptr, ptr %4, align 8, !tbaa !4
  %73 = getelementptr inbounds nuw %struct.AACDecContext, ptr %72, i32 0, i32 38
  %74 = getelementptr inbounds [2 x %struct.OutputConfiguration], ptr %73, i64 0, i64 1
  %75 = getelementptr inbounds nuw %struct.OutputConfiguration, ptr %74, i32 0, i32 0
  %76 = getelementptr inbounds nuw %struct.MPEG4AudioConfig, ptr %75, i32 0, i32 9
  store i32 %71, ptr %76, align 4, !tbaa !98
  %77 = load ptr, ptr %4, align 8, !tbaa !4
  %78 = getelementptr inbounds nuw %struct.AACDecContext, ptr %77, i32 0, i32 38
  %79 = getelementptr inbounds [2 x %struct.OutputConfiguration], ptr %78, i64 0, i64 1
  %80 = getelementptr inbounds nuw %struct.OutputConfiguration, ptr %79, i32 0, i32 0
  %81 = getelementptr inbounds nuw %struct.MPEG4AudioConfig, ptr %80, i32 0, i32 4
  store i32 -1, ptr %81, align 8, !tbaa !88
  %82 = load ptr, ptr %4, align 8, !tbaa !4
  %83 = getelementptr inbounds nuw %struct.AACDecContext, ptr %82, i32 0, i32 38
  %84 = getelementptr inbounds [2 x %struct.OutputConfiguration], ptr %83, i64 0, i64 1
  %85 = getelementptr inbounds nuw %struct.OutputConfiguration, ptr %84, i32 0, i32 0
  %86 = getelementptr inbounds nuw %struct.MPEG4AudioConfig, ptr %85, i32 0, i32 10
  store i32 -1, ptr %86, align 8, !tbaa !39
  store i32 0, ptr %8, align 4, !tbaa !11
  br label %87

87:                                               ; preds = %104, %57
  %88 = load i32, ptr %8, align 4, !tbaa !11
  %89 = sext i32 %88 to i64
  %90 = icmp ult i64 %89, 15
  br i1 %90, label %91, label %107

91:                                               ; preds = %87
  %92 = load i32, ptr %8, align 4, !tbaa !11
  %93 = sext i32 %92 to i64
  %94 = getelementptr inbounds [15 x i8], ptr @ff_mpeg4audio_channels, i64 0, i64 %93
  %95 = load i8, ptr %94, align 1, !tbaa !32
  %96 = zext i8 %95 to i32
  %97 = load ptr, ptr %3, align 8, !tbaa !22
  %98 = getelementptr inbounds nuw %struct.AVCodecContext, ptr %97, i32 0, i32 71
  %99 = getelementptr inbounds nuw %struct.AVChannelLayout, ptr %98, i32 0, i32 1
  %100 = load i32, ptr %99, align 4, !tbaa !76
  %101 = icmp eq i32 %96, %100
  br i1 %101, label %102, label %103

102:                                              ; preds = %91
  br label %107

103:                                              ; preds = %91
  br label %104

104:                                              ; preds = %103
  %105 = load i32, ptr %8, align 4, !tbaa !11
  %106 = add nsw i32 %105, 1
  store i32 %106, ptr %8, align 4, !tbaa !11
  br label %87, !llvm.loop !99

107:                                              ; preds = %102, %87
  %108 = load i32, ptr %8, align 4, !tbaa !11
  %109 = sext i32 %108 to i64
  %110 = icmp eq i64 %109, 15
  br i1 %110, label %111, label %112

111:                                              ; preds = %107
  store i32 0, ptr %8, align 4, !tbaa !11
  br label %112

112:                                              ; preds = %111, %107
  %113 = load i32, ptr %8, align 4, !tbaa !11
  %114 = load ptr, ptr %4, align 8, !tbaa !4
  %115 = getelementptr inbounds nuw %struct.AACDecContext, ptr %114, i32 0, i32 38
  %116 = getelementptr inbounds [2 x %struct.OutputConfiguration], ptr %115, i64 0, i64 1
  %117 = getelementptr inbounds nuw %struct.OutputConfiguration, ptr %116, i32 0, i32 0
  %118 = getelementptr inbounds nuw %struct.MPEG4AudioConfig, ptr %117, i32 0, i32 3
  store i32 %113, ptr %118, align 4, !tbaa !86
  %119 = load ptr, ptr %4, align 8, !tbaa !4
  %120 = getelementptr inbounds nuw %struct.AACDecContext, ptr %119, i32 0, i32 38
  %121 = getelementptr inbounds [2 x %struct.OutputConfiguration], ptr %120, i64 0, i64 1
  %122 = getelementptr inbounds nuw %struct.OutputConfiguration, ptr %121, i32 0, i32 0
  %123 = getelementptr inbounds nuw %struct.MPEG4AudioConfig, ptr %122, i32 0, i32 3
  %124 = load i32, ptr %123, align 4, !tbaa !86
  %125 = icmp ne i32 %124, 0
  br i1 %125, label %126, label %156

126:                                              ; preds = %112
  call void @llvm.lifetime.start.p0(i64 4, ptr %11) #12
  %127 = load ptr, ptr %4, align 8, !tbaa !4
  %128 = load ptr, ptr %3, align 8, !tbaa !22
  %129 = getelementptr inbounds [256 x [3 x i8]], ptr %9, i64 0, i64 0
  %130 = load ptr, ptr %4, align 8, !tbaa !4
  %131 = getelementptr inbounds nuw %struct.AACDecContext, ptr %130, i32 0, i32 38
  %132 = getelementptr inbounds [2 x %struct.OutputConfiguration], ptr %131, i64 0, i64 1
  %133 = getelementptr inbounds nuw %struct.OutputConfiguration, ptr %132, i32 0, i32 0
  %134 = getelementptr inbounds nuw %struct.MPEG4AudioConfig, ptr %133, i32 0, i32 3
  %135 = load i32, ptr %134, align 4, !tbaa !86
  %136 = call i32 @ff_aac_set_default_channel_config(ptr noundef %127, ptr noundef %128, ptr noundef %129, ptr noundef %10, i32 noundef %135)
  store i32 %136, ptr %11, align 4, !tbaa !11
  %137 = load i32, ptr %11, align 4, !tbaa !11
  %138 = icmp ne i32 %137, 0
  br i1 %138, label %144, label %139

139:                                              ; preds = %126
  %140 = load ptr, ptr %4, align 8, !tbaa !4
  %141 = getelementptr inbounds [256 x [3 x i8]], ptr %9, i64 0, i64 0
  %142 = load i32, ptr %10, align 4, !tbaa !11
  %143 = call i32 @ff_aac_output_configure(ptr noundef %140, ptr noundef %141, i32 noundef %142, i32 noundef 3, i32 noundef 0)
  br label %152

144:                                              ; preds = %126
  %145 = load ptr, ptr %3, align 8, !tbaa !22
  %146 = getelementptr inbounds nuw %struct.AVCodecContext, ptr %145, i32 0, i32 104
  %147 = load i32, ptr %146, align 8, !tbaa !100
  %148 = and i32 %147, 8
  %149 = icmp ne i32 %148, 0
  br i1 %149, label %150, label %151

150:                                              ; preds = %144
  store i32 -1094995529, ptr %2, align 4
  store i32 1, ptr %6, align 4
  br label %153

151:                                              ; preds = %144
  br label %152

152:                                              ; preds = %151, %139
  store i32 0, ptr %6, align 4
  br label %153

153:                                              ; preds = %152, %150
  call void @llvm.lifetime.end.p0(i64 4, ptr %11) #12
  %154 = load i32, ptr %6, align 4
  switch i32 %154, label %157 [
    i32 0, label %155
  ]

155:                                              ; preds = %153
  br label %156

156:                                              ; preds = %155, %112
  store i32 0, ptr %6, align 4
  br label %157

157:                                              ; preds = %156, %153
  call void @llvm.lifetime.end.p0(i64 4, ptr %10) #12
  call void @llvm.lifetime.end.p0(i64 768, ptr %9) #12
  call void @llvm.lifetime.end.p0(i64 4, ptr %8) #12
  call void @llvm.lifetime.end.p0(i64 4, ptr %7) #12
  %158 = load i32, ptr %6, align 4
  switch i32 %158, label %173 [
    i32 0, label %159
  ]

159:                                              ; preds = %157
  br label %160

160:                                              ; preds = %159, %56
  %161 = load ptr, ptr %3, align 8, !tbaa !22
  %162 = getelementptr inbounds nuw %struct.AVCodecContext, ptr %161, i32 0, i32 71
  %163 = getelementptr inbounds nuw %struct.AVChannelLayout, ptr %162, i32 0, i32 1
  %164 = load i32, ptr %163, align 4, !tbaa !76
  %165 = icmp sgt i32 %164, 64
  br i1 %165, label %166, label %168

166:                                              ; preds = %160
  %167 = load ptr, ptr %3, align 8, !tbaa !22
  call void (ptr, i32, ptr, ...) @av_log(ptr noundef %167, i32 noundef 16, ptr noundef @.str.9)
  store i32 -1094995529, ptr %2, align 4
  store i32 1, ptr %6, align 4
  br label %173

168:                                              ; preds = %160
  %169 = load ptr, ptr %4, align 8, !tbaa !4
  %170 = getelementptr inbounds nuw %struct.AACDecContext, ptr %169, i32 0, i32 33
  store i32 523124044, ptr %170, align 8, !tbaa !101
  %171 = load ptr, ptr %3, align 8, !tbaa !22
  %172 = call i32 @init_dsp(ptr noundef %171) #13
  store i32 %172, ptr %2, align 4
  store i32 1, ptr %6, align 4
  br label %173

173:                                              ; preds = %168, %166, %157, %54, %19
  call void @llvm.lifetime.end.p0(i64 4, ptr %5) #12
  call void @llvm.lifetime.end.p0(i64 8, ptr %4) #12
  %174 = load i32, ptr %2, align 4
  ret i32 %174
}