; Function Attrs: cold nounwind optsize uwtable
define range(i32 -2147483648, 1) i32 @ff_aac_decode_init(ptr noundef %0) local_unnamed_addr #5 {
  %2 = alloca [256 x [3 x i8]], align 16
  %3 = alloca i32, align 4
  %4 = getelementptr inbounds nuw i8, ptr %0, i64 32
  %5 = load ptr, ptr %4, align 8, !tbaa !51
  %6 = getelementptr inbounds nuw i8, ptr %0, i64 344
  %7 = load i32, ptr %6, align 8, !tbaa !91
  %8 = icmp sgt i32 %7, 96000
  br i1 %8, label %81, label %9

9:                                                ; preds = %1
  tail call void @ff_aacdec_common_init_once() #13
  %10 = getelementptr inbounds nuw i8, ptr %5, i64 8
  store ptr %0, ptr %10, align 8, !tbaa !4
  %11 = load i32, ptr %6, align 8, !tbaa !91
  %12 = getelementptr inbounds nuw i8, ptr %5, i64 22480
  store i32 %11, ptr %12, align 8, !tbaa !92
  %13 = getelementptr inbounds nuw i8, ptr %0, i64 80
  %14 = load i32, ptr %13, align 8, !tbaa !93
  %15 = icmp sgt i32 %14, 0
  br i1 %15, label %16, label %24

16:                                               ; preds = %9
  %17 = getelementptr inbounds nuw i8, ptr %5, i64 22472
  %18 = getelementptr inbounds nuw i8, ptr %0, i64 72
  %19 = load ptr, ptr %18, align 8, !tbaa !94
  %20 = zext nneg i32 %14 to i64
  %21 = shl nuw nsw i64 %20, 3
  %22 = tail call fastcc i32 @decode_audio_specific_config(ptr noundef nonnull %5, ptr noundef nonnull %0, ptr noundef nonnull %17, ptr noundef %19, i64 noundef %21)
  %23 = icmp slt i32 %22, 0
  br i1 %23, label %81, label %73

24:                                               ; preds = %9
  call void @llvm.lifetime.start.p0(i64 768, ptr nonnull %2) #13
  call void @llvm.lifetime.start.p0(i64 4, ptr nonnull %3) #13
  %25 = icmp sgt i32 %11, 92016
  br i1 %25, label %ff_aac_sample_rate_idx.exit, label %26

26:                                               ; preds = %24
  %27 = icmp sgt i32 %11, 75131
  br i1 %27, label %ff_aac_sample_rate_idx.exit, label %28

28:                                               ; preds = %26
  %29 = icmp sgt i32 %11, 55425
  br i1 %29, label %ff_aac_sample_rate_idx.exit, label %30

30:                                               ; preds = %28
  %31 = icmp sgt i32 %11, 46008
  br i1 %31, label %ff_aac_sample_rate_idx.exit, label %32

32:                                               ; preds = %30
  %33 = icmp sgt i32 %11, 37565
  br i1 %33, label %ff_aac_sample_rate_idx.exit, label %34

34:                                               ; preds = %32
  %35 = icmp sgt i32 %11, 27712
  br i1 %35, label %ff_aac_sample_rate_idx.exit, label %36

36:                                               ; preds = %34
  %37 = icmp sgt i32 %11, 23003
  br i1 %37, label %ff_aac_sample_rate_idx.exit, label %38

38:                                               ; preds = %36
  %39 = icmp sgt i32 %11, 18782
  br i1 %39, label %ff_aac_sample_rate_idx.exit, label %40

40:                                               ; preds = %38
  %41 = icmp sgt i32 %11, 13855
  br i1 %41, label %ff_aac_sample_rate_idx.exit, label %42

42:                                               ; preds = %40
  %43 = icmp sgt i32 %11, 11501
  br i1 %43, label %ff_aac_sample_rate_idx.exit, label %44

44:                                               ; preds = %42
  %45 = icmp sgt i32 %11, 9390
  %..i = select i1 %45, i32 10, i32 11
  br label %ff_aac_sample_rate_idx.exit

ff_aac_sample_rate_idx.exit:                      ; preds = %24, %26, %28, %30, %32, %34, %36, %38, %40, %42, %44
  %.0.i = phi i32 [ 0, %24 ], [ 1, %26 ], [ 2, %28 ], [ 3, %30 ], [ 4, %32 ], [ 5, %34 ], [ 6, %36 ], [ 7, %38 ], [ 8, %40 ], [ 9, %42 ], [ %..i, %44 ]
  %46 = getelementptr inbounds nuw i8, ptr %5, i64 22476
  store i32 %.0.i, ptr %46, align 4, !tbaa !95
  %47 = getelementptr inbounds nuw i8, ptr %0, i64 356
  %48 = load i32, ptr %47, align 4, !tbaa !70
  %49 = getelementptr inbounds nuw i8, ptr %5, i64 22508
  store i32 %48, ptr %49, align 4, !tbaa !96
  %50 = getelementptr inbounds nuw i8, ptr %5, i64 22488
  store i32 -1, ptr %50, align 8, !tbaa !89
  %51 = getelementptr inbounds nuw i8, ptr %5, i64 22512
  store i32 -1, ptr %51, align 8, !tbaa !47
  br label %52

52:                                               ; preds = %ff_aac_sample_rate_idx.exit, %57
  %indvars.iv = phi i64 [ 0, %ff_aac_sample_rate_idx.exit ], [ %indvars.iv.next, %57 ]
  %53 = getelementptr inbounds nuw [15 x i8], ptr @ff_mpeg4audio_channels, i64 0, i64 %indvars.iv
  %54 = load i8, ptr %53, align 1, !tbaa !27
  %55 = zext i8 %54 to i32
  %56 = icmp eq i32 %48, %55
  br i1 %56, label %58, label %57

57:                                               ; preds = %52
  %indvars.iv.next = add i64 %indvars.iv, 1
  %exitcond.not = icmp eq i64 %indvars.iv.next, 15
  br i1 %exitcond.not, label %.thread55, label %52, !llvm.loop !97

58:                                               ; preds = %52
  %59 = trunc nuw nsw i64 %indvars.iv to i32
  %60 = icmp eq i64 %indvars.iv, 15
  br i1 %60, label %.thread55, label %62

.thread55:                                        ; preds = %57, %58
  %61 = getelementptr inbounds nuw i8, ptr %5, i64 22484
  store i32 0, ptr %61, align 4, !tbaa !85
  br label %.critedge

62:                                               ; preds = %58
  %63 = getelementptr inbounds nuw i8, ptr %5, i64 22484
  store i32 %59, ptr %63, align 4, !tbaa !85
  %.not = icmp eq i64 %indvars.iv, 0
  br i1 %.not, label %.critedge, label %64

64:                                               ; preds = %62
  %65 = call i32 @ff_aac_set_default_channel_config(ptr noundef nonnull %5, ptr noundef %0, ptr noundef nonnull %2, ptr noundef nonnull %3, i32 noundef %59)
  %.not47 = icmp eq i32 %65, 0
  br i1 %.not47, label %66, label %69

66:                                               ; preds = %64
  %67 = load i32, ptr %3, align 4, !tbaa !17
  %68 = call i32 @ff_aac_output_configure(ptr noundef nonnull %5, ptr noundef nonnull %2, i32 noundef %67, i32 noundef 3, i32 noundef 0)
  br label %.critedge

69:                                               ; preds = %64
  %70 = getelementptr inbounds nuw i8, ptr %0, i64 528
  %71 = load i32, ptr %70, align 8, !tbaa !98
  %72 = and i32 %71, 8
  %.not48 = icmp eq i32 %72, 0
  br i1 %.not48, label %.critedge, label %.critedge50

.critedge:                                        ; preds = %.thread55, %66, %69, %62
  call void @llvm.lifetime.end.p0(i64 4, ptr nonnull %3) #13
  call void @llvm.lifetime.end.p0(i64 768, ptr nonnull %2) #13
  br label %73

73:                                               ; preds = %.critedge, %16
  %74 = getelementptr inbounds nuw i8, ptr %0, i64 356
  %75 = load i32, ptr %74, align 4, !tbaa !70
  %76 = icmp sgt i32 %75, 64
  br i1 %76, label %77, label %78

77:                                               ; preds = %73
  call void (ptr, i32, ptr, ...) @av_log(ptr noundef nonnull %0, i32 noundef 16, ptr noundef nonnull @.str.9) #13
  br label %81

78:                                               ; preds = %73
  %79 = getelementptr inbounds nuw i8, ptr %5, i64 9544
  store i32 523124044, ptr %79, align 8, !tbaa !99
  %.val = load ptr, ptr %4, align 8, !tbaa !51
  %80 = call fastcc i32 @init_dsp(ptr %.val) #14
  br label %81

.critedge50:                                      ; preds = %69
  call void @llvm.lifetime.end.p0(i64 4, ptr nonnull %3) #13
  call void @llvm.lifetime.end.p0(i64 768, ptr nonnull %2) #13
  br label %81

81:                                               ; preds = %.critedge50, %16, %1, %78, %77
  %.0 = phi i32 [ -1094995529, %77 ], [ %80, %78 ], [ -1094995529, %1 ], [ %22, %16 ], [ -1094995529, %.critedge50 ]
  ret i32 %.0
}